; Function Attrs: mustprogress nofree norecurse nosync nounwind null_pointer_is_valid sspstrong willreturn memory(read, inaccessiblemem: none) uwtable
define noundef i32 @_ZNK15PacketListModel17packetNumberToRowEi(ptr noundef readonly align 8 captures(none) dereferenceable_or_null(156) %0, i32 noundef %1) local_unnamed_addr #11 align 2 {
  %3 = sext i32 %1 to i64
  %4 = getelementptr inbounds nuw i8, ptr %0, i64 136
  %5 = load i64, ptr %4, align 8
  %6 = icmp ugt i64 %5, %3
  br i1 %6, label %7, label %_ZNK5QListIiE5valueEx.exit

7:                                                ; preds = %2
  %8 = getelementptr inbounds nuw i8, ptr %0, i64 128
  %9 = load ptr, ptr %8, align 8
  %10 = getelementptr i32, ptr %9, i64 %3
  %11 = load i32, ptr %10, align 4
  %12 = add i32 %11, -1
  br label %_ZNK5QListIiE5valueEx.exit

_ZNK5QListIiE5valueEx.exit:                       ; preds = %2, %7
  %13 = phi i32 [ %12, %7 ], [ -1, %2 ]
  ret i32 %13
}